target datalayout = "e-m:e-p270:32:32-p271:32:32-p272:64:64-i64:64-i128:128-f80:128-n8:16:32:64-S128"
target triple = "x86_64-unknown-linux-gnu"

%"class.fmt::v10::basic_string_view" = type { ptr, i64 }
%"class.std::locale" = type { ptr }
%"class.fmt::v10::basic_format_string" = type { %"class.fmt::v10::basic_string_view" }
%"class.fmt::v10::format_arg_store" = type { %"struct.fmt::v10::detail::arg_data" }
%"struct.fmt::v10::detail::arg_data" = type { [1 x %"class.fmt::v10::detail::value"] }
%"class.fmt::v10::detail::value" = type { %union.anon }
%union.anon = type { i128 }
%"class.fmt::v10::basic_format_args" = type { i64, %union.anon.0 }
%union.anon.0 = type { ptr }
%"struct.fmt::v10::detail::arg_mapper" = type { i8 }

@_ZTISt13runtime_error = external constant ptr
@stderr = external global ptr, align 8
@.str.2 = private unnamed_addr constant [23 x i8] c"{} locale is missing.\0A\00", align 1

; Function Attrs: mustprogress uwtable
define linkonce_odr hidden { i64, i64 } @_ZN3fmt3v1016make_format_argsINS0_20basic_format_contextINS0_8appenderEcEEJPKcEEENS0_16format_arg_storeIT_JDpNSt9remove_cvINSt16remove_referenceIT0_E4typeEE4typeEEEEDpRSB_(ptr noundef nonnull align 8 dereferenceable(8) %args) #0 comdat {
entry:
  %this.addr.i9 = alloca ptr, align 8
  %val.addr.i10 = alloca ptr, align 8
  %this.addr.i6 = alloca ptr, align 8
  %val.addr.i7 = alloca ptr, align 8
  %this.addr.i4 = alloca ptr, align 8
  %init.addr.i = alloca ptr, align 8
  %retval.i = alloca %"class.fmt::v10::detail::value", align 16
  %val.addr.i = alloca ptr, align 8
  %formattable_char.i = alloca i8, align 1
  %formattable_pointer.i = alloca i8, align 1
  %formattable.i = alloca i8, align 1
  %ref.tmp.i2 = alloca %"struct.fmt::v10::detail::arg_mapper", align 1
  %this.addr.i = alloca ptr, align 8
  %args.addr.i = alloca ptr, align 8
  %ref.tmp.i = alloca %"class.fmt::v10::detail::value", align 16
  %retval = alloca %"class.fmt::v10::format_arg_store", align 16
  %args.addr = alloca ptr, align 8
  store ptr %args, ptr %args.addr, align 8
  %0 = load ptr, ptr %args.addr, align 8
  store ptr %retval, ptr %this.addr.i, align 8
  store ptr %0, ptr %args.addr.i, align 8
  %this1.i = load ptr, ptr %this.addr.i, align 8
  %1 = load ptr, ptr %args.addr.i, align 8
  store ptr %1, ptr %val.addr.i, align 8
  store i8 1, ptr %formattable_char.i, align 1
  store i8 1, ptr %formattable_pointer.i, align 1
  store i8 1, ptr %formattable.i, align 1
  %2 = load ptr, ptr %val.addr.i, align 8
  %3 = load ptr, ptr %2, align 8
  store ptr %ref.tmp.i2, ptr %this.addr.i6, align 8
  store ptr %3, ptr %val.addr.i7, align 8
  %4 = load ptr, ptr %val.addr.i7, align 8
  store ptr %retval.i, ptr %this.addr.i9, align 8
  store ptr %4, ptr %val.addr.i10, align 8
  %this1.i11 = load ptr, ptr %this.addr.i9, align 8
  %5 = load ptr, ptr %val.addr.i10, align 8
  store ptr %5, ptr %this1.i11, align 16
  %6 = load { i64, i64 }, ptr %retval.i, align 16
  %7 = extractvalue { i64, i64 } %6, 0
  store i64 %7, ptr %ref.tmp.i, align 16
  %8 = getelementptr inbounds { i64, i64 }, ptr %ref.tmp.i, i32 0, i32 1
  %9 = extractvalue { i64, i64 } %6, 1
  store i64 %9, ptr %8, align 8
  store ptr %this1.i, ptr %this.addr.i4, align 8
  store ptr %ref.tmp.i, ptr %init.addr.i, align 8
  %this1.i5 = load ptr, ptr %this.addr.i4, align 8
  %10 = load ptr, ptr %init.addr.i, align 8
  call void @llvm.memcpy.p0.p0.i64(ptr align 16 %this1.i5, ptr align 16 %10, i64 16, i1 false)
  %coerce.dive = getelementptr inbounds %"class.fmt::v10::format_arg_store", ptr %retval, i32 0, i32 0
  %coerce.dive1 = getelementptr inbounds %"struct.fmt::v10::detail::arg_data", ptr %coerce.dive, i32 0, i32 0
  %11 = load { i64, i64 }, ptr %coerce.dive1, align 16
  ret { i64, i64 } %11
}

; Function Attrs: mustprogress nounwind uwtable
define linkonce_odr hidden noundef i64 @_ZNSt11char_traitsIcE6lengthEPKc(ptr noundef %__s) #1 comdat align 2 {
entry:
  %__s.addr = alloca ptr, align 8
  store ptr %__s, ptr %__s.addr, align 8
  %0 = load ptr, ptr %__s.addr, align 8
  %call = call i64 @strlen(ptr noundef %0) #18
  ret i64 %call
}

; Function Attrs: mustprogress uwtable
define hidden void @_Z13do_get_localePKc(ptr noalias sret(%"class.std::locale") align 8 %agg.result, ptr noundef %name) #0 personality ptr @__gxx_personality_v0 {
entry:
  %result.ptr = alloca ptr, align 8
  %name.addr = alloca ptr, align 8
  %exn.slot = alloca ptr, align 8
  %ehselector.slot = alloca i32, align 4
  %0 = alloca ptr, align 8
  store ptr %agg.result, ptr %result.ptr, align 8
  store ptr %name, ptr %name.addr, align 8
  %1 = load ptr, ptr %name.addr, align 8
  invoke void @_ZNSt6localeC1EPKc(ptr noundef nonnull align 8 dereferenceable(8) %agg.result, ptr noundef %1)
          to label %invoke.cont unwind label %lpad

invoke.cont:                                      ; preds = %entry
  br label %return

lpad:                                             ; preds = %entry
  %2 = landingpad { ptr, i32 }
          catch ptr @_ZTISt13runtime_error
  %3 = extractvalue { ptr, i32 } %2, 0
  store ptr %3, ptr %exn.slot, align 8
  %4 = extractvalue { ptr, i32 } %2, 1
  store i32 %4, ptr %ehselector.slot, align 4
  br label %catch.dispatch

catch.dispatch:                                   ; preds = %lpad
  %sel = load i32, ptr %ehselector.slot, align 4
  %5 = call i32 @llvm.eh.typeid.for(ptr @_ZTISt13runtime_error) #18
  %matches = icmp eq i32 %sel, %5
  br i1 %matches, label %catch, label %eh.resume

catch:                                            ; preds = %catch.dispatch
  %exn = load ptr, ptr %exn.slot, align 8
  %6 = call ptr @__cxa_begin_catch(ptr %exn) #18
  store ptr %6, ptr %0, align 8
  call void @__cxa_end_catch()
  br label %try.cont

try.cont:                                         ; preds = %catch
  %call = call noundef nonnull align 8 dereferenceable(8) ptr @_ZNSt6locale7classicEv()
  call void @_ZNSt6localeC1ERKS_(ptr noundef nonnull align 8 dereferenceable(8) %agg.result, ptr noundef nonnull align 8 dereferenceable(8) %call) #18
  br label %return

return:                                           ; preds = %try.cont, %invoke.cont
  ret void

eh.resume:                                        ; preds = %catch.dispatch
  %exn1 = load ptr, ptr %exn.slot, align 8
  %sel2 = load i32, ptr %ehselector.slot, align 4
  %lpad.val = insertvalue { ptr, i32 } poison, ptr %exn1, 0
  %lpad.val3 = insertvalue { ptr, i32 } %lpad.val, i32 %sel2, 1
  resume { ptr, i32 } %lpad.val3
}

; Function Attrs: mustprogress uwtable
define hidden void @_Z10get_localePKcS0_(ptr noalias sret(%"class.std::locale") align 8 %agg.result, ptr noundef %name, ptr noundef %alt_name) #0 personality ptr @__gxx_personality_v0 {
entry:
  %.addr.i = alloca ptr, align 8
  %this.addr.i25 = alloca ptr, align 8
  %this.addr.i23 = alloca ptr, align 8
  %desc.addr.i = alloca i64, align 8
  %values.addr.i = alloca ptr, align 8
  %this.addr.i19 = alloca ptr, align 8
  %s.addr.i20 = alloca ptr, align 8
  %this.addr.i17 = alloca ptr, align 8
  %store.addr.i = alloca ptr, align 8
  %retval.i = alloca %"class.fmt::v10::basic_string_view", align 8
  %this.addr.i15 = alloca ptr, align 8
  %this.addr.i = alloca ptr, align 8
  %s.addr.i = alloca ptr, align 8
  %fmt.i = alloca %"class.fmt::v10::basic_format_string", align 8
  %f.addr.i = alloca ptr, align 8
  %args.addr.i = alloca ptr, align 8
  %vargs.i = alloca ptr, align 8
  %ref.tmp.i = alloca %"class.fmt::v10::format_arg_store", align 16
  %agg.tmp.i = alloca %"class.fmt::v10::basic_string_view", align 8
  %agg.tmp3.i = alloca %"class.fmt::v10::basic_format_args", align 8
  %result.ptr = alloca ptr, align 8
  %name.addr = alloca ptr, align 8
  %alt_name.addr = alloca ptr, align 8
  %nrvo = alloca i1, align 1
  %exn.slot = alloca ptr, align 8
  %ehselector.slot = alloca i32, align 4
  %ref.tmp = alloca %"class.std::locale", align 8
  %agg.tmp = alloca %"class.fmt::v10::basic_format_string", align 8
  store ptr %agg.result, ptr %result.ptr, align 8
  store ptr %name, ptr %name.addr, align 8
  store ptr %alt_name, ptr %alt_name.addr, align 8
  store i1 false, ptr %nrvo, align 1
  %0 = load ptr, ptr %name.addr, align 8
  call void @_Z13do_get_localePKc(ptr sret(%"class.std::locale") align 8 %agg.result, ptr noundef %0)
  %call = invoke noundef nonnull align 8 dereferenceable(8) ptr @_ZNSt6locale7classicEv()
          to label %invoke.cont unwind label %lpad

invoke.cont:                                      ; preds = %entry
  %call1 = call noundef zeroext i1 @_ZNKSt6localeeqERKS_(ptr noundef nonnull align 8 dereferenceable(8) %agg.result, ptr noundef nonnull align 8 dereferenceable(8) %call) #18
  br i1 %call1, label %land.lhs.true, label %if.end

land.lhs.true:                                    ; preds = %invoke.cont
  %1 = load ptr, ptr %alt_name.addr, align 8
  %tobool = icmp ne ptr %1, null
  br i1 %tobool, label %if.then, label %if.end

if.then:                                          ; preds = %land.lhs.true
  %2 = load ptr, ptr %alt_name.addr, align 8
  invoke void @_Z13do_get_localePKc(ptr sret(%"class.std::locale") align 8 %ref.tmp, ptr noundef %2)
          to label %invoke.cont2 unwind label %lpad

invoke.cont2:                                     ; preds = %if.then
  %call3 = call noundef nonnull align 8 dereferenceable(8) ptr @_ZNSt6localeaSERKS_(ptr noundef nonnull align 8 dereferenceable(8) %agg.result, ptr noundef nonnull align 8 dereferenceable(8) %ref.tmp) #18
  call void @_ZNSt6localeD1Ev(ptr noundef nonnull align 8 dereferenceable(8) %ref.tmp) #18
  br label %if.end

lpad:                                             ; preds = %.noexc, %invoke.cont8, %if.end, %if.then, %entry
  %3 = landingpad { ptr, i32 }
          cleanup
  %4 = extractvalue { ptr, i32 } %3, 0
  store ptr %4, ptr %exn.slot, align 8
  %5 = extractvalue { ptr, i32 } %3, 1
  store i32 %5, ptr %ehselector.slot, align 4
  call void @_ZNSt6localeD1Ev(ptr noundef nonnull align 8 dereferenceable(8) %agg.result) #18
  br label %eh.resume

if.end:                                           ; preds = %invoke.cont2, %land.lhs.true, %invoke.cont
  %call5 = invoke noundef nonnull align 8 dereferenceable(8) ptr @_ZNSt6locale7classicEv()
          to label %invoke.cont4 unwind label %lpad

invoke.cont4:                                     ; preds = %if.end
  %call6 = call noundef zeroext i1 @_ZNKSt6localeeqERKS_(ptr noundef nonnull align 8 dereferenceable(8) %agg.result, ptr noundef nonnull align 8 dereferenceable(8) %call5) #18
  br i1 %call6, label %if.then7, label %if.end10

if.then7:                                         ; preds = %invoke.cont4
  %6 = load ptr, ptr @stderr, align 8
  store ptr %agg.tmp, ptr %this.addr.i, align 8
  store ptr @.str.2, ptr %s.addr.i, align 8
  %this1.i = load ptr, ptr %this.addr.i, align 8
  %7 = load ptr, ptr %s.addr.i, align 8
  store ptr %this1.i, ptr %this.addr.i19, align 8
  store ptr %7, ptr %s.addr.i20, align 8
  %this1.i21 = load ptr, ptr %this.addr.i19, align 8
  %8 = load ptr, ptr %s.addr.i20, align 8
  store ptr %8, ptr %this1.i21, align 8
  %size_.i = getelementptr inbounds %"class.fmt::v10::basic_string_view", ptr %this1.i21, i32 0, i32 1
  %9 = load ptr, ptr %s.addr.i20, align 8
  %call.i22 = call noundef i64 @_ZNSt11char_traitsIcE6lengthEPKc(ptr noundef %9)
  store i64 %call.i22, ptr %size_.i, align 8
  br label %_ZN3fmt3v1019basic_format_stringIcJRPKcEEC2IA23_cTnNSt9enable_ifIXsr3std14is_convertibleIRKT_NS0_17basic_string_viewIcEEEE5valueEiE4typeELi0EEESB_.exit

_ZN3fmt3v1019basic_format_stringIcJRPKcEEC2IA23_cTnNSt9enable_ifIXsr3std14is_convertibleIRKT_NS0_17basic_string_viewIcEEEE5valueEiE4typeELi0EEESB_.exit: ; preds = %if.then7
  %10 = load ptr, ptr %s.addr.i, align 8
  store ptr %10, ptr %.addr.i, align 8
  br label %invoke.cont8

invoke.cont8:                                     ; preds = %_ZN3fmt3v1019basic_format_stringIcJRPKcEEC2IA23_cTnNSt9enable_ifIXsr3std14is_convertibleIRKT_NS0_17basic_string_viewIcEEEE5valueEiE4typeELi0EEESB_.exit
  %11 = getelementptr inbounds { ptr, i64 }, ptr %agg.tmp, i32 0, i32 0
  %12 = load ptr, ptr %11, align 8
  %13 = getelementptr inbounds { ptr, i64 }, ptr %agg.tmp, i32 0, i32 1
  %14 = load i64, ptr %13, align 8
  store ptr %12, ptr %fmt.i, align 8
  %15 = getelementptr inbounds { ptr, i64 }, ptr %fmt.i, i32 0, i32 1
  store i64 %14, ptr %15, align 8
  store ptr %6, ptr %f.addr.i, align 8
  store ptr %name.addr, ptr %args.addr.i, align 8
  %16 = load ptr, ptr %args.addr.i, align 8
  %call.i12 = invoke { i64, i64 } @_ZN3fmt3v1016make_format_argsINS0_20basic_format_contextINS0_8appenderEcEEJPKcEEENS0_16format_arg_storeIT_JDpNSt9remove_cvINSt16remove_referenceIT0_E4typeEE4typeEEEEDpRSB_(ptr noundef nonnull align 8 dereferenceable(8) %16)
          to label %call.i.noexc unwind label %lpad

call.i.noexc:                                     ; preds = %invoke.cont8
  %17 = extractvalue { i64, i64 } %call.i12, 0
  store i64 %17, ptr %ref.tmp.i, align 16
  %18 = getelementptr inbounds { i64, i64 }, ptr %ref.tmp.i, i32 0, i32 1
  %19 = extractvalue { i64, i64 } %call.i12, 1
  store i64 %19, ptr %18, align 8
  store ptr %ref.tmp.i, ptr %vargs.i, align 8
  %20 = load ptr, ptr %f.addr.i, align 8
  store ptr %fmt.i, ptr %this.addr.i15, align 8
  %this1.i16 = load ptr, ptr %this.addr.i15, align 8
  call void @llvm.memcpy.p0.p0.i64(ptr align 8 %retval.i, ptr align 8 %this1.i16, i64 16, i1 false)
  %21 = load { ptr, i64 }, ptr %retval.i, align 8
  %22 = extractvalue { ptr, i64 } %21, 0
  store ptr %22, ptr %agg.tmp.i, align 8
  %23 = getelementptr inbounds { ptr, i64 }, ptr %agg.tmp.i, i32 0, i32 1
  %24 = extractvalue { ptr, i64 } %21, 1
  store i64 %24, ptr %23, align 8
  %25 = load ptr, ptr %vargs.i, align 8
  store ptr %agg.tmp3.i, ptr %this.addr.i17, align 8
  store ptr %25, ptr %store.addr.i, align 8
  %this1.i18 = load ptr, ptr %this.addr.i17, align 8
  %26 = load ptr, ptr %store.addr.i, align 8
  store ptr %26, ptr %this.addr.i25, align 8
  %this1.i26 = load ptr, ptr %this.addr.i25, align 8
  store ptr %this1.i18, ptr %this.addr.i23, align 8
  store i64 12, ptr %desc.addr.i, align 8
  store ptr %this1.i26, ptr %values.addr.i, align 8
  %this1.i24 = load ptr, ptr %this.addr.i23, align 8
  %27 = load i64, ptr %desc.addr.i, align 8
  store i64 %27, ptr %this1.i24, align 8
  %28 = getelementptr inbounds %"class.fmt::v10::basic_format_args", ptr %this1.i24, i32 0, i32 1
  %29 = load ptr, ptr %values.addr.i, align 8
  store ptr %29, ptr %28, align 8
  br label %.noexc

.noexc:                                           ; preds = %call.i.noexc
  %30 = load ptr, ptr %agg.tmp.i, align 8
  %31 = getelementptr inbounds { ptr, i64 }, ptr %agg.tmp.i, i32 0, i32 1
  %32 = load i64, ptr %31, align 8
  %33 = load i64, ptr %agg.tmp3.i, align 8
  %34 = getelementptr inbounds { i64, ptr }, ptr %agg.tmp3.i, i32 0, i32 1
  %35 = load ptr, ptr %34, align 8
  invoke void @_ZN3fmt3v106vprintEP8_IO_FILENS0_17basic_string_viewIcEENS0_17basic_format_argsINS0_20basic_format_contextINS0_8appenderEcEEEE(ptr noundef %20, ptr %30, i64 %32, i64 %33, ptr %35)
          to label %_ZN3fmt3v105printIJRPKcEEEvP8_IO_FILENS0_19basic_format_stringIcJDpNS0_13type_identityIT_E4typeEEEEDpOS9_.exit unwind label %lpad

_ZN3fmt3v105printIJRPKcEEEvP8_IO_FILENS0_19basic_format_stringIcJDpNS0_13type_identityIT_E4typeEEEEDpOS9_.exit: ; preds = %.noexc
  br label %invoke.cont9

invoke.cont9:                                     ; preds = %_ZN3fmt3v105printIJRPKcEEEvP8_IO_FILENS0_19basic_format_stringIcJDpNS0_13type_identityIT_E4typeEEEEDpOS9_.exit
  br label %if.end10

if.end10:                                         ; preds = %invoke.cont9, %invoke.cont4
  store i1 true, ptr %nrvo, align 1
  %nrvo.val = load i1, ptr %nrvo, align 1
  br i1 %nrvo.val, label %nrvo.skipdtor, label %nrvo.unused

nrvo.unused:                                      ; preds = %if.end10
  call void @_ZNSt6localeD1Ev(ptr noundef nonnull align 8 dereferenceable(8) %agg.result) #18
  br label %nrvo.skipdtor

nrvo.skipdtor:                                    ; preds = %nrvo.unused, %if.end10
  ret void

eh.resume:                                        ; preds = %lpad
  %exn = load ptr, ptr %exn.slot, align 8
  %sel = load i32, ptr %ehselector.slot, align 4
  %lpad.val = insertvalue { ptr, i32 } poison, ptr %exn, 0
  %lpad.val11 = insertvalue { ptr, i32 } %lpad.val, i32 %sel, 1
  resume { ptr, i32 } %lpad.val11
}