; Function Attrs: mustprogress uwtable
define hidden void @_Z10get_localePKcS0_(ptr noalias nonnull sret(%"class.std::locale") align 8 %agg.result, ptr noundef %name, ptr noundef %alt_name) local_unnamed_addr #0 personality ptr @__gxx_personality_v0 {
entry:
  %ref.tmp.i = alloca %"class.fmt::v10::format_arg_store", align 16
  %ref.tmp = alloca %"class.std::locale", align 8
  invoke void @_ZNSt6localeC1EPKc(ptr noundef nonnull align 8 dereferenceable(8) %agg.result, ptr noundef %name)
          to label %_Z13do_get_localePKc.exit unwind label %lpad.i

lpad.i:                                           ; preds = %entry
  %0 = landingpad { ptr, i32 }
          catch ptr @_ZTISt13runtime_error
  %1 = extractvalue { ptr, i32 } %0, 1
  %2 = tail call i32 @llvm.eh.typeid.for(ptr nonnull @_ZTISt13runtime_error) #23
  %matches.i = icmp eq i32 %1, %2
  br i1 %matches.i, label %catch.i, label %common.resume

catch.i:                                          ; preds = %lpad.i
  %3 = extractvalue { ptr, i32 } %0, 0
  %4 = tail call ptr @__cxa_begin_catch(ptr %3) #23
  tail call void @__cxa_end_catch()
  %call.i = tail call noundef nonnull align 8 dereferenceable(8) ptr @_ZNSt6locale7classicEv()
  tail call void @_ZNSt6localeC1ERKS_(ptr noundef nonnull align 8 dereferenceable(8) %agg.result, ptr noundef nonnull align 8 dereferenceable(8) %call.i) #23
  br label %_Z13do_get_localePKc.exit

common.resume:                                    ; preds = %lpad.i, %lpad.body
  %common.resume.op = phi { ptr, i32 } [ %eh.lpad-body, %lpad.body ], [ %0, %lpad.i ]
  resume { ptr, i32 } %common.resume.op

_Z13do_get_localePKc.exit:                        ; preds = %entry, %catch.i
  %call = invoke noundef nonnull align 8 dereferenceable(8) ptr @_ZNSt6locale7classicEv()
          to label %invoke.cont unwind label %lpad

invoke.cont:                                      ; preds = %_Z13do_get_localePKc.exit
  %call1 = tail call noundef zeroext i1 @_ZNKSt6localeeqERKS_(ptr noundef nonnull align 8 dereferenceable(8) %agg.result, ptr noundef nonnull align 8 dereferenceable(8) %call) #23
  %tobool = icmp ne ptr %alt_name, null
  %or.cond = and i1 %tobool, %call1
  br i1 %or.cond, label %if.then, label %if.end

if.then:                                          ; preds = %invoke.cont
  invoke void @_ZNSt6localeC1EPKc(ptr noundef nonnull align 8 dereferenceable(8) %ref.tmp, ptr noundef nonnull %alt_name)
          to label %invoke.cont2 unwind label %lpad.i4

lpad.i4:                                          ; preds = %if.then
  %5 = landingpad { ptr, i32 }
          cleanup
          catch ptr @_ZTISt13runtime_error
  %6 = extractvalue { ptr, i32 } %5, 1
  %7 = call i32 @llvm.eh.typeid.for(ptr nonnull @_ZTISt13runtime_error) #23
  %matches.i5 = icmp eq i32 %6, %7
  br i1 %matches.i5, label %catch.i7, label %lpad.body

catch.i7:                                         ; preds = %lpad.i4
  %8 = extractvalue { ptr, i32 } %5, 0
  %9 = call ptr @__cxa_begin_catch(ptr %8) #23
  invoke void @__cxa_end_catch()
          to label %.noexc unwind label %lpad

.noexc:                                           ; preds = %catch.i7
  %call.i89 = invoke noundef nonnull align 8 dereferenceable(8) ptr @_ZNSt6locale7classicEv()
          to label %call.i8.noexc unwind label %lpad

call.i8.noexc:                                    ; preds = %.noexc
  call void @_ZNSt6localeC1ERKS_(ptr noundef nonnull align 8 dereferenceable(8) %ref.tmp, ptr noundef nonnull align 8 dereferenceable(8) %call.i89) #23
  br label %invoke.cont2

invoke.cont2:                                     ; preds = %call.i8.noexc, %if.then
  %call3 = call noundef nonnull align 8 dereferenceable(8) ptr @_ZNSt6localeaSERKS_(ptr noundef nonnull align 8 dereferenceable(8) %agg.result, ptr noundef nonnull align 8 dereferenceable(8) %ref.tmp) #23
  call void @_ZNSt6localeD1Ev(ptr noundef nonnull align 8 dereferenceable(8) %ref.tmp) #23
  br label %if.end

lpad:                                             ; preds = %.noexc, %catch.i7, %call.i.noexc, %if.end, %_Z13do_get_localePKc.exit
  %10 = landingpad { ptr, i32 }
          cleanup
  br label %lpad.body

lpad.body:                                        ; preds = %lpad.i4, %lpad
  %eh.lpad-body = phi { ptr, i32 } [ %10, %lpad ], [ %5, %lpad.i4 ]
  call void @_ZNSt6localeD1Ev(ptr noundef nonnull align 8 dereferenceable(8) %agg.result) #23
  br label %common.resume

if.end:                                           ; preds = %invoke.cont2, %invoke.cont
  %call5 = invoke noundef nonnull align 8 dereferenceable(8) ptr @_ZNSt6locale7classicEv()
          to label %invoke.cont4 unwind label %lpad

invoke.cont4:                                     ; preds = %if.end
  %call6 = call noundef zeroext i1 @_ZNKSt6localeeqERKS_(ptr noundef nonnull align 8 dereferenceable(8) %agg.result, ptr noundef nonnull align 8 dereferenceable(8) %call5) #23
  br i1 %call6, label %call.i.noexc, label %nrvo.skipdtor

call.i.noexc:                                     ; preds = %invoke.cont4
  %11 = load ptr, ptr @stderr, align 8
  %12 = ptrtoint ptr %name to i64
  store i64 %12, ptr %ref.tmp.i, align 16
  invoke void @_ZN3fmt3v106vprintEP8_IO_FILENS0_17basic_string_viewIcEENS0_17basic_format_argsINS0_20basic_format_contextINS0_8appenderEcEEEE(ptr noundef %11, ptr nonnull @.str.2, i64 22, i64 12, ptr nonnull %ref.tmp.i)
          to label %nrvo.skipdtor unwind label %lpad

nrvo.skipdtor:                                    ; preds = %invoke.cont4, %call.i.noexc
  ret void
}